target datalayout = "e-m:e-p270:32:32-p271:32:32-p272:64:64-i64:64-i128:128-f80:128-n8:16:32:64-S128"
target triple = "x86_64-pc-linux-gnu"

@.str = private unnamed_addr constant [11 x i8] c"%s[%d]=%d\0A\00", align 1

; Function Attrs: mustprogress uwtable
define void @_Z7pr_ivecP8_IO_FILEiPKcPKiib(ptr noundef %0, i32 noundef %1, ptr noundef %2, ptr noundef %3, i32 noundef %4, i1 noundef zeroext %5) #0 {
  %7 = alloca ptr, align 8
  %8 = alloca i32, align 4
  %9 = alloca ptr, align 8
  %10 = alloca ptr, align 8
  %11 = alloca i32, align 4
  %12 = alloca i8, align 1
  %13 = alloca i32, align 4
  store ptr %0, ptr %7, align 8
  store i32 %1, ptr %8, align 4
  store ptr %2, ptr %9, align 8
  store ptr %3, ptr %10, align 8
  store i32 %4, ptr %11, align 4
  %14 = zext i1 %5 to i8
  store i8 %14, ptr %12, align 1
  %15 = load ptr, ptr %7, align 8
  %16 = load ptr, ptr %10, align 8
  %17 = load i32, ptr %8, align 4
  %18 = load ptr, ptr %9, align 8
  %19 = call noundef zeroext i1 @_Z9availableP8_IO_FILEPKviPKc(ptr noundef %15, ptr noundef %16, i32 noundef %17, ptr noundef %18)
  br i1 %19, label %20, label %53

20:                                               ; preds = %6
  %21 = load ptr, ptr %7, align 8
  %22 = load i32, ptr %8, align 4
  %23 = load ptr, ptr %9, align 8
  %24 = load i32, ptr %11, align 4
  %25 = call noundef i32 @_Z10pr_title_nP8_IO_FILEiPKci(ptr noundef %21, i32 noundef %22, ptr noundef %23, i32 noundef %24)
  store i32 %25, ptr %8, align 4
  store i32 0, ptr %13, align 4
  br label %26

26:                                               ; preds = %49, %20
  %27 = load i32, ptr %13, align 4
  %28 = load i32, ptr %11, align 4
  %29 = icmp slt i32 %27, %28
  br i1 %29, label %30, label %52

30:                                               ; preds = %26
  %31 = load ptr, ptr %7, align 8
  %32 = load i32, ptr %8, align 4
  %33 = call noundef i32 @_Z9pr_indentP8_IO_FILEi(ptr noundef %31, i32 noundef %32)
  %34 = load ptr, ptr %7, align 8
  %35 = load ptr, ptr %9, align 8
  %36 = load i8, ptr %12, align 1
  %37 = trunc i8 %36 to i1
  br i1 %37, label %38, label %40

38:                                               ; preds = %30
  %39 = load i32, ptr %13, align 4
  br label %41

40:                                               ; preds = %30
  br label %41

41:                                               ; preds = %40, %38
  %42 = phi i32 [ %39, %38 ], [ -1, %40 ]
  %43 = load ptr, ptr %10, align 8
  %44 = load i32, ptr %13, align 4
  %45 = sext i32 %44 to i64
  %46 = getelementptr inbounds i32, ptr %43, i64 %45
  %47 = load i32, ptr %46, align 4
  %48 = call i32 (ptr, ptr, ...) @fprintf(ptr noundef %34, ptr noundef @.str, ptr noundef %35, i32 noundef %42, i32 noundef %47) #3
  br label %49

49:                                               ; preds = %41
  %50 = load i32, ptr %13, align 4
  %51 = add nsw i32 %50, 1
  store i32 %51, ptr %13, align 4
  br label %26, !llvm.loop !5

52:                                               ; preds = %26
  br label %53

53:                                               ; preds = %52, %6
  ret void
}